target datalayout = "e-m:e-p270:32:32-p271:32:32-p272:64:64-i64:64-i128:128-f80:128-n8:16:32:64-S128"
target triple = "x86_64-pc-linux-gnu"

%"struct.Luau::EqSat::Id" = type { i32 }
%"class.std::vector.0" = type { %"struct.std::_Vector_base.1" }
%"struct.std::_Vector_base.1" = type { %"struct.std::_Vector_base<Luau::EqSat::Id, std::allocator<Luau::EqSat::Id>>::_Vector_impl" }
%"struct.std::_Vector_base<Luau::EqSat::Id, std::allocator<Luau::EqSat::Id>>::_Vector_impl" = type { %"struct.std::_Vector_base<Luau::EqSat::Id, std::allocator<Luau::EqSat::Id>>::_Vector_impl_data" }
%"struct.std::_Vector_base<Luau::EqSat::Id, std::allocator<Luau::EqSat::Id>>::_Vector_impl_data" = type { ptr, ptr, ptr }
%"class.std::basic_string_view" = type { i64, ptr }
%"struct.Luau::EqSatSimplification::StringCache" = type { %"class.Luau::Allocator", %"class.Luau::DenseHashMap", %"class.std::vector.8" }
%"class.Luau::Allocator" = type { ptr, i64 }
%"class.Luau::DenseHashMap" = type { %"class.Luau::detail::DenseHashTable" }
%"class.Luau::detail::DenseHashTable" = type <{ ptr, i64, i64, %"class.std::basic_string_view", [8 x i8] }>
%"class.std::vector.8" = type { %"struct.std::_Vector_base.9" }
%"struct.std::_Vector_base.9" = type { %"struct.std::_Vector_base<std::basic_string_view<char>, std::allocator<std::basic_string_view<char>>>::_Vector_impl" }
%"struct.std::_Vector_base<std::basic_string_view<char>, std::allocator<std::basic_string_view<char>>>::_Vector_impl" = type { %"struct.std::_Vector_base<std::basic_string_view<char>, std::allocator<std::basic_string_view<char>>>::_Vector_impl_data" }
%"struct.std::_Vector_base<std::basic_string_view<char>, std::allocator<std::basic_string_view<char>>>::_Vector_impl_data" = type { ptr, ptr, ptr }
%"struct.Luau::NotNull" = type { ptr }
%"struct.std::__detail::_Hash_node_base" = type { ptr }
%"struct.std::__detail::_Prime_rehash_policy" = type { float, i64 }
%"class.std::unordered_map.109" = type { %"class.std::_Hashtable.110" }
%"class.std::_Hashtable.110" = type { ptr, i64, %"struct.std::__detail::_Hash_node_base", i64, %"struct.std::__detail::_Prime_rehash_policy", ptr }
%"struct.Luau::EqSat::EGraph" = type { [8 x i8], %"struct.Luau::EqSat::UnionFind", %"class.std::unordered_map", %"class.std::unordered_map.26", %"class.std::vector.0" }
%"struct.Luau::EqSat::UnionFind" = type { %"class.std::vector.0", %"class.std::vector.16" }
%"class.std::vector.16" = type { %"struct.std::_Vector_base.17" }
%"struct.std::_Vector_base.17" = type { %"struct.std::_Vector_base<int, std::allocator<int>>::_Vector_impl" }
%"struct.std::_Vector_base<int, std::allocator<int>>::_Vector_impl" = type { %"struct.std::_Vector_base<int, std::allocator<int>>::_Vector_impl_data" }
%"struct.std::_Vector_base<int, std::allocator<int>>::_Vector_impl_data" = type { ptr, ptr, ptr }
%"class.std::unordered_map" = type { %"class.std::_Hashtable" }
%"class.std::_Hashtable" = type { ptr, i64, %"struct.std::__detail::_Hash_node_base", i64, %"struct.std::__detail::_Prime_rehash_policy", ptr }
%"class.std::unordered_map.26" = type { %"class.std::_Hashtable.27" }
%"class.std::_Hashtable.27" = type { ptr, i64, %"struct.std::__detail::_Hash_node_base", i64, %"struct.std::__detail::_Prime_rehash_policy", ptr }
%"struct.Luau::NotNull.172" = type { ptr }
%"struct.Luau::EqSatSimplification::Simplifier" = type { %"struct.Luau::NotNull.172", %"struct.Luau::NotNull", %"struct.Luau::EqSat::EGraph", %"struct.Luau::EqSatSimplification::StringCache", %"class.std::unordered_map.109", %"class.std::vector.333" }
%"class.std::vector.333" = type { %"struct.std::_Vector_base.334" }
%"struct.std::_Vector_base.334" = type { %"struct.std::_Vector_base<Luau::EqSatSimplification::Subst, std::allocator<Luau::EqSatSimplification::Subst>>::_Vector_impl" }
%"struct.std::_Vector_base<Luau::EqSatSimplification::Subst, std::allocator<Luau::EqSatSimplification::Subst>>::_Vector_impl" = type { %"struct.std::_Vector_base<Luau::EqSatSimplification::Subst, std::allocator<Luau::EqSatSimplification::Subst>>::_Vector_impl_data" }
%"struct.std::_Vector_base<Luau::EqSatSimplification::Subst, std::allocator<Luau::EqSatSimplification::Subst>>::_Vector_impl_data" = type { ptr, ptr, ptr }

; Function Attrs: mustprogress uwtable
define linkonce_odr dso_local noundef nonnull align 8 dereferenceable(64) ptr @_ZNSt13unordered_mapIN4Luau5EqSat2IdENS1_6EClassINS1_8LanguageIJNS0_19EqSatSimplification4TNilENS5_8TBooleanENS5_7TNumberENS5_7TStringENS5_7TThreadENS5_12TTopFunctionENS5_9TTopTableENS5_9TTopClassENS5_7TBufferENS5_7TOpaqueENS5_8SBooleanENS5_7SStringENS5_9TFunctionENS5_6TTableENS5_14TImportedTableENS5_6TClassENS5_4TAnyENS5_6TErrorENS5_8TUnknownENS5_6TNeverENS5_5UnionENS5_12IntersectionENS5_8NegationENS5_8TTypeFunENS5_7InvalidENS5_9TNoRefineENS5_6TBoundEEEEbEESt4hashIS2_ESt8equal_toIS2_ESaISt4pairIKS2_SY_EEE2atERS14_(ptr noundef nonnull align 8 dereferenceable(56) %0, ptr noundef nonnull align 4 dereferenceable(4) %1) #6 comdat align 2 {
  %3 = alloca ptr, align 8
  %4 = alloca ptr, align 8
  store ptr %0, ptr %3, align 8, !tbaa !493
  store ptr %1, ptr %4, align 8, !tbaa !28
  %5 = load ptr, ptr %3, align 8
  %6 = getelementptr inbounds nuw %"class.std::unordered_map", ptr %5, i32 0, i32 0
  %7 = load ptr, ptr %4, align 8, !tbaa !28
  %8 = call noundef nonnull align 8 dereferenceable(64) ptr @_ZNSt8__detail9_Map_baseIN4Luau5EqSat2IdESt4pairIKS3_NS2_6EClassINS2_8LanguageIJNS1_19EqSatSimplification4TNilENS8_8TBooleanENS8_7TNumberENS8_7TStringENS8_7TThreadENS8_12TTopFunctionENS8_9TTopTableENS8_9TTopClassENS8_7TBufferENS8_7TOpaqueENS8_8SBooleanENS8_7SStringENS8_9TFunctionENS8_6TTableENS8_14TImportedTableENS8_6TClassENS8_4TAnyENS8_6TErrorENS8_8TUnknownENS8_6TNeverENS8_5UnionENS8_12IntersectionENS8_8NegationENS8_8TTypeFunENS8_7InvalidENS8_9TNoRefineENS8_6TBoundEEEEbEEESaIS12_ENS_10_Select1stESt8equal_toIS3_ESt4hashIS3_ENS_18_Mod_range_hashingENS_20_Default_ranged_hashENS_20_Prime_rehash_policyENS_17_Hashtable_traitsILb1ELb0ELb1EEELb1EE2atERS5_(ptr noundef nonnull align 1 dereferenceable(1) %6, ptr noundef nonnull align 4 dereferenceable(4) %7)
  ret ptr %8
}

; Function Attrs: mustprogress uwtable
define linkonce_odr dso_local noundef nonnull align 8 dereferenceable(64) ptr @_ZN4Luau5EqSat6EGraphINS0_8LanguageIJNS_19EqSatSimplification4TNilENS3_8TBooleanENS3_7TNumberENS3_7TStringENS3_7TThreadENS3_12TTopFunctionENS3_9TTopTableENS3_9TTopClassENS3_7TBufferENS3_7TOpaqueENS3_8SBooleanENS3_7SStringENS3_9TFunctionENS3_6TTableENS3_14TImportedTableENS3_6TClassENS3_4TAnyENS3_6TErrorENS3_8TUnknownENS3_6TNeverENS3_5UnionENS3_12IntersectionENS3_8NegationENS3_8TTypeFunENS3_7InvalidENS3_9TNoRefineENS3_6TBoundEEEENS3_8SimplifyEE3getENS0_2IdE(ptr noundef nonnull align 8 dereferenceable(192) %0, i32 %1) #6 comdat align 2 {
  %3 = alloca %"struct.Luau::EqSat::Id", align 4
  %4 = alloca ptr, align 8
  %5 = getelementptr inbounds nuw %"struct.Luau::EqSat::Id", ptr %3, i32 0, i32 0
  store i32 %1, ptr %5, align 4
  store ptr %0, ptr %4, align 8, !tbaa !98
  %6 = load ptr, ptr %4, align 8
  %7 = getelementptr inbounds nuw %"struct.Luau::EqSat::EGraph", ptr %6, i32 0, i32 2
  %8 = call noundef nonnull align 8 dereferenceable(64) ptr @_ZNSt13unordered_mapIN4Luau5EqSat2IdENS1_6EClassINS1_8LanguageIJNS0_19EqSatSimplification4TNilENS5_8TBooleanENS5_7TNumberENS5_7TStringENS5_7TThreadENS5_12TTopFunctionENS5_9TTopTableENS5_9TTopClassENS5_7TBufferENS5_7TOpaqueENS5_8SBooleanENS5_7SStringENS5_9TFunctionENS5_6TTableENS5_14TImportedTableENS5_6TClassENS5_4TAnyENS5_6TErrorENS5_8TUnknownENS5_6TNeverENS5_5UnionENS5_12IntersectionENS5_8NegationENS5_8TTypeFunENS5_7InvalidENS5_9TNoRefineENS5_6TBoundEEEEbEESt4hashIS2_ESt8equal_toIS2_ESaISt4pairIKS2_SY_EEE2atERS14_(ptr noundef nonnull align 8 dereferenceable(56) %7, ptr noundef nonnull align 4 dereferenceable(4) %3)
  ret ptr %8
}

; Function Attrs: mustprogress uwtable
define linkonce_odr dso_local i32 @_ZNK4Luau5EqSat6EGraphINS0_8LanguageIJNS_19EqSatSimplification4TNilENS3_8TBooleanENS3_7TNumberENS3_7TStringENS3_7TThreadENS3_12TTopFunctionENS3_9TTopTableENS3_9TTopClassENS3_7TBufferENS3_7TOpaqueENS3_8SBooleanENS3_7SStringENS3_9TFunctionENS3_6TTableENS3_14TImportedTableENS3_6TClassENS3_4TAnyENS3_6TErrorENS3_8TUnknownENS3_6TNeverENS3_5UnionENS3_12IntersectionENS3_8NegationENS3_8TTypeFunENS3_7InvalidENS3_9TNoRefineENS3_6TBoundEEEENS3_8SimplifyEE4findENS0_2IdE(ptr noundef nonnull align 8 dereferenceable(192) %0, i32 %1) #6 comdat align 2 {
  %3 = alloca %"struct.Luau::EqSat::Id", align 4
  %4 = alloca %"struct.Luau::EqSat::Id", align 4
  %5 = alloca ptr, align 8
  %6 = alloca %"struct.Luau::EqSat::Id", align 4
  %7 = getelementptr inbounds nuw %"struct.Luau::EqSat::Id", ptr %4, i32 0, i32 0
  store i32 %1, ptr %7, align 4
  store ptr %0, ptr %5, align 8, !tbaa !98
  %8 = load ptr, ptr %5, align 8
  %9 = getelementptr inbounds nuw %"struct.Luau::EqSat::EGraph", ptr %8, i32 0, i32 1
  call void @llvm.memcpy.p0.p0.i64(ptr align 4 %6, ptr align 4 %4, i64 4, i1 false), !tbaa.struct !47
  %10 = getelementptr inbounds nuw %"struct.Luau::EqSat::Id", ptr %6, i32 0, i32 0
  %11 = load i32, ptr %10, align 4
  %12 = call i32 @_ZNK4Luau5EqSat9UnionFind4findENS0_2IdE(ptr noundef nonnull align 8 dereferenceable(48) %9, i32 %11)
  %13 = getelementptr inbounds nuw %"struct.Luau::EqSat::Id", ptr %3, i32 0, i32 0
  store i32 %12, ptr %13, align 4
  %14 = getelementptr inbounds nuw %"struct.Luau::EqSat::Id", ptr %3, i32 0, i32 0
  %15 = load i32, ptr %14, align 4
  ret i32 %15
}

; Function Attrs: mustprogress uwtable
define linkonce_odr dso_local noundef nonnull align 8 dereferenceable(64) ptr @_ZNK4Luau5EqSat6EGraphINS0_8LanguageIJNS_19EqSatSimplification4TNilENS3_8TBooleanENS3_7TNumberENS3_7TStringENS3_7TThreadENS3_12TTopFunctionENS3_9TTopTableENS3_9TTopClassENS3_7TBufferENS3_7TOpaqueENS3_8SBooleanENS3_7SStringENS3_9TFunctionENS3_6TTableENS3_14TImportedTableENS3_6TClassENS3_4TAnyENS3_6TErrorENS3_8TUnknownENS3_6TNeverENS3_5UnionENS3_12IntersectionENS3_8NegationENS3_8TTypeFunENS3_7InvalidENS3_9TNoRefineENS3_6TBoundEEEENS3_8SimplifyEEixENS0_2IdE(ptr noundef nonnull align 8 dereferenceable(192) %0, i32 %1) #6 comdat align 2 {
  %3 = alloca %"struct.Luau::EqSat::Id", align 4
  %4 = alloca ptr, align 8
  %5 = alloca %"struct.Luau::EqSat::Id", align 4
  %6 = alloca %"struct.Luau::EqSat::Id", align 4
  %7 = getelementptr inbounds nuw %"struct.Luau::EqSat::Id", ptr %3, i32 0, i32 0
  store i32 %1, ptr %7, align 4
  store ptr %0, ptr %4, align 8, !tbaa !98
  %8 = load ptr, ptr %4, align 8
  call void @llvm.memcpy.p0.p0.i64(ptr align 4 %6, ptr align 4 %3, i64 4, i1 false), !tbaa.struct !47
  %9 = getelementptr inbounds nuw %"struct.Luau::EqSat::Id", ptr %6, i32 0, i32 0
  %10 = load i32, ptr %9, align 4
  %11 = call i32 @_ZNK4Luau5EqSat6EGraphINS0_8LanguageIJNS_19EqSatSimplification4TNilENS3_8TBooleanENS3_7TNumberENS3_7TStringENS3_7TThreadENS3_12TTopFunctionENS3_9TTopTableENS3_9TTopClassENS3_7TBufferENS3_7TOpaqueENS3_8SBooleanENS3_7SStringENS3_9TFunctionENS3_6TTableENS3_14TImportedTableENS3_6TClassENS3_4TAnyENS3_6TErrorENS3_8TUnknownENS3_6TNeverENS3_5UnionENS3_12IntersectionENS3_8NegationENS3_8TTypeFunENS3_7InvalidENS3_9TNoRefineENS3_6TBoundEEEENS3_8SimplifyEE4findENS0_2IdE(ptr noundef nonnull align 8 dereferenceable(192) %8, i32 %10)
  %12 = getelementptr inbounds nuw %"struct.Luau::EqSat::Id", ptr %5, i32 0, i32 0
  store i32 %11, ptr %12, align 4
  %13 = getelementptr inbounds nuw %"struct.Luau::EqSat::Id", ptr %5, i32 0, i32 0
  %14 = load i32, ptr %13, align 4
  %15 = call noundef nonnull align 8 dereferenceable(64) ptr @_ZN4Luau5EqSat6EGraphINS0_8LanguageIJNS_19EqSatSimplification4TNilENS3_8TBooleanENS3_7TNumberENS3_7TStringENS3_7TThreadENS3_12TTopFunctionENS3_9TTopTableENS3_9TTopClassENS3_7TBufferENS3_7TOpaqueENS3_8SBooleanENS3_7SStringENS3_9TFunctionENS3_6TTableENS3_14TImportedTableENS3_6TClassENS3_4TAnyENS3_6TErrorENS3_8TUnknownENS3_6TNeverENS3_5UnionENS3_12IntersectionENS3_8NegationENS3_8TTypeFunENS3_7InvalidENS3_9TNoRefineENS3_6TBoundEEEENS3_8SimplifyEE3getENS0_2IdE(ptr noundef nonnull align 8 dereferenceable(192) %8, i32 %14)
  ret ptr %15
}

; Function Attrs: mustprogress uwtable
define dso_local noundef nonnull align 8 dereferenceable(64) ptr @_ZNK4Luau19EqSatSimplification10Simplifier3getENS_5EqSat2IdE(ptr noundef nonnull align 8 dereferenceable(376) %0, i32 %1) #6 align 2 {
  %3 = alloca %"struct.Luau::EqSat::Id", align 4
  %4 = alloca ptr, align 8
  %5 = alloca %"struct.Luau::EqSat::Id", align 4
  %6 = getelementptr inbounds nuw %"struct.Luau::EqSat::Id", ptr %3, i32 0, i32 0
  store i32 %1, ptr %6, align 4
  store ptr %0, ptr %4, align 8, !tbaa !533
  %7 = load ptr, ptr %4, align 8
  %8 = getelementptr inbounds nuw %"struct.Luau::EqSatSimplification::Simplifier", ptr %7, i32 0, i32 2
  call void @llvm.memcpy.p0.p0.i64(ptr align 4 %5, ptr align 4 %3, i64 4, i1 false), !tbaa.struct !47
  %9 = getelementptr inbounds nuw %"struct.Luau::EqSat::Id", ptr %5, i32 0, i32 0
  %10 = load i32, ptr %9, align 4
  %11 = call noundef nonnull align 8 dereferenceable(64) ptr @_ZNK4Luau5EqSat6EGraphINS0_8LanguageIJNS_19EqSatSimplification4TNilENS3_8TBooleanENS3_7TNumberENS3_7TStringENS3_7TThreadENS3_12TTopFunctionENS3_9TTopTableENS3_9TTopClassENS3_7TBufferENS3_7TOpaqueENS3_8SBooleanENS3_7SStringENS3_9TFunctionENS3_6TTableENS3_14TImportedTableENS3_6TClassENS3_4TAnyENS3_6TErrorENS3_8TUnknownENS3_6TNeverENS3_5UnionENS3_12IntersectionENS3_8NegationENS3_8TTypeFunENS3_7InvalidENS3_9TNoRefineENS3_6TBoundEEEENS3_8SimplifyEEixENS0_2IdE(ptr noundef nonnull align 8 dereferenceable(192) %8, i32 %10)
  ret ptr %11
}