; Function Attrs: mustprogress uwtable
define dso_local noundef nonnull align 8 dereferenceable(64) ptr @_ZNK4Luau19EqSatSimplification10Simplifier3getENS_5EqSat2IdE(ptr noundef nonnull align 8 dereferenceable(376) %0, i32 %1) local_unnamed_addr #5 align 2 {
  %3 = alloca %"struct.Luau::EqSat::Id", align 4
  %4 = getelementptr inbounds nuw i8, ptr %0, i64 24
  %5 = tail call i32 @_ZNK4Luau5EqSat9UnionFind4findENS0_2IdE(ptr noundef nonnull align 8 dereferenceable(48) %4, i32 %1)
  call void @llvm.lifetime.start.p0(i64 4, ptr nonnull %3)
  store i32 %5, ptr %3, align 4
  %6 = getelementptr inbounds nuw i8, ptr %0, i64 72
  %7 = call noundef nonnull align 8 dereferenceable(64) ptr @_ZNSt8__detail9_Map_baseIN4Luau5EqSat2IdESt4pairIKS3_NS2_6EClassINS2_8LanguageIJNS1_19EqSatSimplification4TNilENS8_8TBooleanENS8_7TNumberENS8_7TStringENS8_7TThreadENS8_12TTopFunctionENS8_9TTopTableENS8_9TTopClassENS8_7TBufferENS8_7TOpaqueENS8_8SBooleanENS8_7SStringENS8_9TFunctionENS8_6TTableENS8_14TImportedTableENS8_6TClassENS8_4TAnyENS8_6TErrorENS8_8TUnknownENS8_6TNeverENS8_5UnionENS8_12IntersectionENS8_8NegationENS8_8TTypeFunENS8_7InvalidENS8_9TNoRefineENS8_6TBoundEEEEbEEESaIS12_ENS_10_Select1stESt8equal_toIS3_ESt4hashIS3_ENS_18_Mod_range_hashingENS_20_Default_ranged_hashENS_20_Prime_rehash_policyENS_17_Hashtable_traitsILb1ELb0ELb1EEELb1EE2atERS5_(ptr noundef nonnull align 8 dereferenceable(56) %6, ptr noundef nonnull align 4 dereferenceable(4) %3)
  call void @llvm.lifetime.end.p0(i64 4, ptr nonnull %3)
  ret ptr %7
}